target datalayout = "e-m:e-p270:32:32-p271:32:32-p272:64:64-i64:64-i128:128-f80:128-n8:16:32:64-S128"
target triple = "x86_64-pc-linux-gnu"

%"class.icu_77::StringPiece" = type <{ ptr, i32, [4 x i8] }>

; Function Attrs: mustprogress nounwind uwtable
define linkonce_odr noundef ptr @_ZNK6icu_7711StringPiece4dataEv(ptr noundef nonnull align 8 dereferenceable(12) %0) #0 comdat align 2 {
  %2 = alloca ptr, align 8
  store ptr %0, ptr %2, align 8, !tbaa !3
  %3 = load ptr, ptr %2, align 8
  %4 = getelementptr inbounds nuw %"class.icu_77::StringPiece", ptr %3, i32 0, i32 0
  %5 = load ptr, ptr %4, align 8, !tbaa !10
  ret ptr %5
}

; Function Attrs: mustprogress nounwind uwtable
define linkonce_odr noundef i32 @_ZNK6icu_7711StringPiece6lengthEv(ptr noundef nonnull align 8 dereferenceable(12) %0) #0 comdat align 2 {
  %2 = alloca ptr, align 8
  store ptr %0, ptr %2, align 8, !tbaa !3
  %3 = load ptr, ptr %2, align 8
  %4 = getelementptr inbounds nuw %"class.icu_77::StringPiece", ptr %3, i32 0, i32 1
  %5 = load i32, ptr %4, align 8, !tbaa !13
  ret i32 %5
}

; Function Attrs: mustprogress uwtable
define noundef i32 @_ZN6icu_7711StringPiece4findES0_i(ptr noundef nonnull align 8 dereferenceable(12) %0, ptr %1, i32 %2, i32 noundef %3) #2 align 2 {
  %5 = alloca i32, align 4
  %6 = alloca %"class.icu_77::StringPiece", align 8
  %7 = alloca ptr, align 8
  %8 = alloca i32, align 4
  %9 = alloca i32, align 4
  %10 = alloca i32, align 4
  %11 = alloca i32, align 4
  %12 = getelementptr inbounds nuw { ptr, i32 }, ptr %6, i32 0, i32 0
  store ptr %1, ptr %12, align 8
  %13 = getelementptr inbounds nuw { ptr, i32 }, ptr %6, i32 0, i32 1
  store i32 %2, ptr %13, align 8
  store ptr %0, ptr %7, align 8, !tbaa !3
  store i32 %3, ptr %8, align 4, !tbaa !14
  %14 = load ptr, ptr %7, align 8
  %15 = call noundef i32 @_ZNK6icu_7711StringPiece6lengthEv(ptr noundef nonnull align 8 dereferenceable(12) %14)
  %16 = icmp eq i32 %15, 0
  br i1 %16, label %17, label %21

17:                                               ; preds = %4
  %18 = call noundef i32 @_ZNK6icu_7711StringPiece6lengthEv(ptr noundef nonnull align 8 dereferenceable(12) %6)
  %19 = icmp eq i32 %18, 0
  br i1 %19, label %20, label %21

20:                                               ; preds = %17
  store i32 0, ptr %5, align 4
  br label %71

21:                                               ; preds = %17, %4
  call void @llvm.lifetime.start.p0(i64 4, ptr %9) #5
  %22 = load i32, ptr %8, align 4, !tbaa !14
  store i32 %22, ptr %9, align 4, !tbaa !14
  br label %23

23:                                               ; preds = %65, %21
  %24 = load i32, ptr %9, align 4, !tbaa !14
  %25 = call noundef i32 @_ZNK6icu_7711StringPiece6lengthEv(ptr noundef nonnull align 8 dereferenceable(12) %14)
  %26 = icmp slt i32 %24, %25
  br i1 %26, label %28, label %27

27:                                               ; preds = %23
  store i32 2, ptr %10, align 4
  br label %68

28:                                               ; preds = %23
  call void @llvm.lifetime.start.p0(i64 4, ptr %11) #5
  store i32 0, ptr %11, align 4, !tbaa !14
  br label %29

29:                                               ; preds = %52, %28
  %30 = load i32, ptr %11, align 4, !tbaa !14
  %31 = call noundef i32 @_ZNK6icu_7711StringPiece6lengthEv(ptr noundef nonnull align 8 dereferenceable(12) %6)
  %32 = icmp slt i32 %30, %31
  br i1 %32, label %33, label %57

33:                                               ; preds = %29
  %34 = call noundef ptr @_ZNK6icu_7711StringPiece4dataEv(ptr noundef nonnull align 8 dereferenceable(12) %14)
  %35 = load i32, ptr %9, align 4, !tbaa !14
  %36 = sext i32 %35 to i64
  %37 = getelementptr inbounds i8, ptr %34, i64 %36
  %38 = load i8, ptr %37, align 1, !tbaa !15
  %39 = sext i8 %38 to i32
  %40 = call noundef ptr @_ZNK6icu_7711StringPiece4dataEv(ptr noundef nonnull align 8 dereferenceable(12) %6)
  %41 = load i32, ptr %11, align 4, !tbaa !14
  %42 = sext i32 %41 to i64
  %43 = getelementptr inbounds i8, ptr %40, i64 %42
  %44 = load i8, ptr %43, align 1, !tbaa !15
  %45 = sext i8 %44 to i32
  %46 = icmp ne i32 %39, %45
  br i1 %46, label %47, label %51

47:                                               ; preds = %33
  %48 = load i32, ptr %11, align 4, !tbaa !14
  %49 = load i32, ptr %9, align 4, !tbaa !14
  %50 = sub nsw i32 %49, %48
  store i32 %50, ptr %9, align 4, !tbaa !14
  br label %61

51:                                               ; preds = %33
  br label %52

52:                                               ; preds = %51
  %53 = load i32, ptr %9, align 4, !tbaa !14
  %54 = add nsw i32 %53, 1
  store i32 %54, ptr %9, align 4, !tbaa !14
  %55 = load i32, ptr %11, align 4, !tbaa !14
  %56 = add nsw i32 %55, 1
  store i32 %56, ptr %11, align 4, !tbaa !14
  br label %29, !llvm.loop !16

57:                                               ; preds = %29
  %58 = load i32, ptr %9, align 4, !tbaa !14
  %59 = load i32, ptr %11, align 4, !tbaa !14
  %60 = sub nsw i32 %58, %59
  store i32 %60, ptr %5, align 4
  store i32 1, ptr %10, align 4
  br label %62

61:                                               ; preds = %47
  store i32 0, ptr %10, align 4
  br label %62

62:                                               ; preds = %61, %57
  call void @llvm.lifetime.end.p0(i64 4, ptr %11) #5
  %63 = load i32, ptr %10, align 4
  switch i32 %63, label %68 [
    i32 0, label %64
  ]

64:                                               ; preds = %62
  br label %65

65:                                               ; preds = %64
  %66 = load i32, ptr %9, align 4, !tbaa !14
  %67 = add nsw i32 %66, 1
  store i32 %67, ptr %9, align 4, !tbaa !14
  br label %23, !llvm.loop !18

68:                                               ; preds = %62, %27
  call void @llvm.lifetime.end.p0(i64 4, ptr %9) #5
  %69 = load i32, ptr %10, align 4
  switch i32 %69, label %73 [
    i32 2, label %70
    i32 1, label %71
  ]

70:                                               ; preds = %68
  store i32 -1, ptr %5, align 4
  br label %71

71:                                               ; preds = %70, %68, %20
  %72 = load i32, ptr %5, align 4
  ret i32 %72

73:                                               ; preds = %68
  unreachable
}